#include <math.h>
#include <stdio.h>
#include <stdlib.h>
#include <string.h>
#include <iostream>
using namespace std;

/*
 * ????????.cpp
 * ?????
 * ????: 2012-12-9
 * ?????????
 */
int main(){										//?????
	int a[110]={0};
	int *p=NULL;
	int n=0,i=0;;								//??????????
	cin>>n;										//??n
	for(i=0;i<n;i++){
		cin>>a[i];
	}											//????
	p=&a[n-1];									//???p????a???????
	for(i=n-1;i>=1;i--){
		cout<<*p<<" ";
		p--;
	}											//?????n-1?
	cout<<*p<<endl;								//??????1???
	return 0;
}												//?????